; Function Attrs: mustprogress nofree norecurse nosync nounwind willreturn memory(read, argmem: readwrite, inaccessiblemem: none) uwtable
define hidden void @_ZN6hermes6parser7JSLexer22initializeWithBufferIdEj(ptr noundef nonnull align 8 captures(none) dereferenceable(1128) initializes((16, 20), (136, 160)) %this, i32 noundef %bufId) local_unnamed_addr #4 align 2 {
entry:
  %0 = load ptr, ptr %this, align 8
  %sub.i.i = add i32 %bufId, -1
  %conv.i.i = zext i32 %sub.i.i to i64
  %1 = load ptr, ptr %0, align 8
  %add.ptr.i.i.i = getelementptr inbounds nuw %"struct.llvh::SourceMgr::SrcBuffer", ptr %1, i64 %conv.i.i
  %2 = load ptr, ptr %add.ptr.i.i.i, align 8
  %bufId_ = getelementptr inbounds nuw i8, ptr %this, i64 16
  store i32 %bufId, ptr %bufId_, align 8
  %BufferStart.i = getelementptr inbounds nuw i8, ptr %2, i64 8
  %3 = load ptr, ptr %BufferStart.i, align 8
  %bufferStart_ = getelementptr inbounds nuw i8, ptr %this, i64 136
  store ptr %3, ptr %bufferStart_, align 8
  %BufferEnd.i = getelementptr inbounds nuw i8, ptr %2, i64 16
  %4 = load ptr, ptr %BufferEnd.i, align 8
  %bufferEnd_ = getelementptr inbounds nuw i8, ptr %this, i64 152
  store ptr %4, ptr %bufferEnd_, align 8
  %curCharPtr_ = getelementptr inbounds nuw i8, ptr %this, i64 144
  store ptr %3, ptr %curCharPtr_, align 8
  ret void
}